target datalayout = "e-m:e-p270:32:32-p271:32:32-p272:64:64-i64:64-i128:128-f80:128-n8:16:32:64-S128"
target triple = "x86_64-pc-linux-gnu"

%struct.blf_params = type { ptr, ptr, ptr, i8, i8, ptr }
%struct.wtap_rec = type { i32, i32, i32, %struct.nstime_t, i32, %struct.nstime_t, i8, %union.anon, ptr, i8, %struct.Buffer, %struct.Buffer }
%struct.nstime_t = type { i64, i32 }
%union.anon = type { %struct.wtap_packet_header }
%struct.wtap_packet_header = type { i32, i32, i32, i32, %union.wtap_pseudo_header }
%union.wtap_pseudo_header = type { %struct.erf_mc_phdr }
%struct.erf_mc_phdr = type { %struct.erf_phdr, [16 x %struct.erf_ehdr], %union.anon.1 }
%struct.erf_phdr = type { i64, i8, i8, i16, i16, i16 }
%struct.erf_ehdr = type { i64 }
%union.anon.1 = type { i32 }
%struct.Buffer = type { ptr, i64, i64, i64 }
%struct.blf_ethernet_rxerror = type { i16, i16, i16, i16, i32, i16, i32 }

@.str.52 = private unnamed_addr constant [76 x i8] c"blf: ETHERNET_RXERROR: not enough bytes for ethernet frame header in object\00", align 1
@.str.53 = private unnamed_addr constant [39 x i8] c"blf: ETHERNET_RXERROR: frame too short\00", align 1

; Function Attrs: null_pointer_is_valid sspstrong uwtable
define internal void @blf_add_direction_option(ptr noundef %0, i16 noundef zeroext %1) #2 {
  %3 = alloca ptr, align 8
  %4 = alloca i16, align 2
  %5 = alloca i32, align 4
  store ptr %0, ptr %3, align 8
  store i16 %1, ptr %4, align 2
  call void @llvm.lifetime.start.p0(i64 4, ptr %5) #13
  store i32 0, ptr %5, align 4
  %6 = load i16, ptr %4, align 2
  %7 = zext i16 %6 to i32
  switch i32 %7, label %10 [
    i32 0, label %8
    i32 1, label %9
    i32 2, label %9
  ]

8:                                                ; preds = %2
  store i32 1, ptr %5, align 4
  br label %10

9:                                                ; preds = %2, %2
  store i32 2, ptr %5, align 4
  br label %10

10:                                               ; preds = %2, %9, %8
  %11 = load ptr, ptr %3, align 8
  %12 = getelementptr inbounds nuw %struct.blf_params, ptr %11, i32 0, i32 1
  %13 = load ptr, ptr %12, align 8
  %14 = getelementptr inbounds nuw %struct.wtap_rec, ptr %13, i32 0, i32 8
  %15 = load ptr, ptr %14, align 8
  %16 = load i32, ptr %5, align 4
  %17 = call i32 @wtap_block_add_uint32_option(ptr noundef %15, i32 noundef 2, i32 noundef %16)
  call void @llvm.lifetime.end.p0(i64 4, ptr %5) #13
  ret void
}

; Function Attrs: inlinehint nounwind null_pointer_is_valid sspstrong uwtable
define internal void @ws_buffer_increase_length(ptr noundef %0, i64 noundef %1) #12 {
  %3 = alloca ptr, align 8
  %4 = alloca i64, align 8
  store ptr %0, ptr %3, align 8
  store i64 %1, ptr %4, align 8
  %5 = load i64, ptr %4, align 8
  %6 = load ptr, ptr %3, align 8
  %7 = getelementptr inbounds nuw %struct.Buffer, ptr %6, i32 0, i32 3
  %8 = load i64, ptr %7, align 8
  %9 = add i64 %8, %5
  store i64 %9, ptr %7, align 8
  ret void
}

; Function Attrs: inlinehint nounwind null_pointer_is_valid sspstrong uwtable
define internal ptr @ws_buffer_end_ptr(ptr noundef %0) #12 {
  %2 = alloca ptr, align 8
  store ptr %0, ptr %2, align 8
  %3 = load ptr, ptr %2, align 8
  %4 = getelementptr inbounds nuw %struct.Buffer, ptr %3, i32 0, i32 0
  %5 = load ptr, ptr %4, align 8
  %6 = load ptr, ptr %2, align 8
  %7 = getelementptr inbounds nuw %struct.Buffer, ptr %6, i32 0, i32 3
  %8 = load i64, ptr %7, align 8
  %9 = getelementptr i8, ptr %5, i64 %8
  ret ptr %9
}

; Function Attrs: nounwind null_pointer_is_valid sspstrong uwtable
define internal void @fix_endianness_blf_ethernet_rxerror(ptr noundef %0) #0 {
  %2 = alloca ptr, align 8
  store ptr %0, ptr %2, align 8
  %3 = load ptr, ptr %2, align 8
  %4 = getelementptr inbounds nuw %struct.blf_ethernet_rxerror, ptr %3, i32 0, i32 0
  %5 = load i16, ptr %4, align 4
  %6 = load ptr, ptr %2, align 8
  %7 = getelementptr inbounds nuw %struct.blf_ethernet_rxerror, ptr %6, i32 0, i32 0
  store i16 %5, ptr %7, align 4
  %8 = load ptr, ptr %2, align 8
  %9 = getelementptr inbounds nuw %struct.blf_ethernet_rxerror, ptr %8, i32 0, i32 1
  %10 = load i16, ptr %9, align 2
  %11 = load ptr, ptr %2, align 8
  %12 = getelementptr inbounds nuw %struct.blf_ethernet_rxerror, ptr %11, i32 0, i32 1
  store i16 %10, ptr %12, align 2
  %13 = load ptr, ptr %2, align 8
  %14 = getelementptr inbounds nuw %struct.blf_ethernet_rxerror, ptr %13, i32 0, i32 2
  %15 = load i16, ptr %14, align 4
  %16 = load ptr, ptr %2, align 8
  %17 = getelementptr inbounds nuw %struct.blf_ethernet_rxerror, ptr %16, i32 0, i32 2
  store i16 %15, ptr %17, align 4
  %18 = load ptr, ptr %2, align 8
  %19 = getelementptr inbounds nuw %struct.blf_ethernet_rxerror, ptr %18, i32 0, i32 3
  %20 = load i16, ptr %19, align 2
  %21 = load ptr, ptr %2, align 8
  %22 = getelementptr inbounds nuw %struct.blf_ethernet_rxerror, ptr %21, i32 0, i32 3
  store i16 %20, ptr %22, align 2
  %23 = load ptr, ptr %2, align 8
  %24 = getelementptr inbounds nuw %struct.blf_ethernet_rxerror, ptr %23, i32 0, i32 4
  %25 = load i32, ptr %24, align 4
  %26 = load ptr, ptr %2, align 8
  %27 = getelementptr inbounds nuw %struct.blf_ethernet_rxerror, ptr %26, i32 0, i32 4
  store i32 %25, ptr %27, align 4
  %28 = load ptr, ptr %2, align 8
  %29 = getelementptr inbounds nuw %struct.blf_ethernet_rxerror, ptr %28, i32 0, i32 5
  %30 = load i16, ptr %29, align 4
  %31 = load ptr, ptr %2, align 8
  %32 = getelementptr inbounds nuw %struct.blf_ethernet_rxerror, ptr %31, i32 0, i32 5
  store i16 %30, ptr %32, align 4
  %33 = load ptr, ptr %2, align 8
  %34 = getelementptr inbounds nuw %struct.blf_ethernet_rxerror, ptr %33, i32 0, i32 6
  %35 = load i32, ptr %34, align 4
  %36 = load ptr, ptr %2, align 8
  %37 = getelementptr inbounds nuw %struct.blf_ethernet_rxerror, ptr %36, i32 0, i32 6
  store i32 %35, ptr %37, align 4
  ret void
}

; Function Attrs: null_pointer_is_valid sspstrong uwtable
define internal zeroext i1 @blf_read_bytes(ptr noundef %0, i64 noundef %1, ptr noundef %2, i64 noundef %3, ptr noundef %4, ptr noundef %5) #2 {
  %7 = alloca i1, align 1
  %8 = alloca ptr, align 8
  %9 = alloca i64, align 8
  %10 = alloca ptr, align 8
  %11 = alloca i64, align 8
  %12 = alloca ptr, align 8
  %13 = alloca ptr, align 8
  store ptr %0, ptr %8, align 8
  store i64 %1, ptr %9, align 8
  store ptr %2, ptr %10, align 8
  store i64 %3, ptr %11, align 8
  store ptr %4, ptr %12, align 8
  store ptr %5, ptr %13, align 8
  %14 = load ptr, ptr %8, align 8
  %15 = load i64, ptr %9, align 8
  %16 = load ptr, ptr %10, align 8
  %17 = load i64, ptr %11, align 8
  %18 = load ptr, ptr %12, align 8
  %19 = load ptr, ptr %13, align 8
  %20 = call zeroext i1 @blf_read_bytes_or_eof(ptr noundef %14, i64 noundef %15, ptr noundef %16, i64 noundef %17, ptr noundef %18, ptr noundef %19)
  br i1 %20, label %28, label %21

21:                                               ; preds = %6
  %22 = load ptr, ptr %12, align 8
  %23 = load i32, ptr %22, align 4
  %24 = icmp eq i32 %23, 0
  br i1 %24, label %25, label %27

25:                                               ; preds = %21
  %26 = load ptr, ptr %12, align 8
  store i32 -12, ptr %26, align 4
  br label %27

27:                                               ; preds = %25, %21
  store i1 false, ptr %7, align 1
  br label %29

28:                                               ; preds = %6
  store i1 true, ptr %7, align 1
  br label %29

29:                                               ; preds = %28, %27
  %30 = load i1, ptr %7, align 1
  ret i1 %30
}

; Function Attrs: null_pointer_is_valid sspstrong uwtable
define internal zeroext i1 @blf_read_ethernet_rxerror(ptr noundef %0, ptr noundef %1, ptr noundef %2, i64 noundef %3, i64 noundef %4, i64 noundef %5, i32 noundef %6, i64 noundef %7) #2 {
  %9 = alloca i1, align 1
  %10 = alloca ptr, align 8
  %11 = alloca ptr, align 8
  %12 = alloca ptr, align 8
  %13 = alloca i64, align 8
  %14 = alloca i64, align 8
  %15 = alloca i64, align 8
  %16 = alloca i32, align 4
  %17 = alloca i64, align 8
  %18 = alloca %struct.blf_ethernet_rxerror, align 4
  %19 = alloca i32, align 4
  store ptr %0, ptr %10, align 8
  store ptr %1, ptr %11, align 8
  store ptr %2, ptr %12, align 8
  store i64 %3, ptr %13, align 8
  store i64 %4, ptr %14, align 8
  store i64 %5, ptr %15, align 8
  store i32 %6, ptr %16, align 4
  store i64 %7, ptr %17, align 8
  call void @llvm.lifetime.start.p0(i64 20, ptr %18) #13
  %20 = load i64, ptr %15, align 8
  %21 = load i64, ptr %14, align 8
  %22 = load i64, ptr %13, align 8
  %23 = sub i64 %21, %22
  %24 = add i64 %23, 20
  %25 = icmp slt i64 %20, %24
  br i1 %25, label %26, label %33

26:                                               ; preds = %8
  %27 = load ptr, ptr %11, align 8
  store i32 -13, ptr %27, align 4
  %28 = call noalias ptr @wmem_strdup(ptr noundef null, ptr noundef @.str.52)
  %29 = load ptr, ptr %12, align 8
  store ptr %28, ptr %29, align 8
  br label %30

30:                                               ; preds = %26
  br label %31

31:                                               ; preds = %30
  br label %32

32:                                               ; preds = %31
  store i1 false, ptr %9, align 1
  store i32 1, ptr %19, align 4
  br label %137

33:                                               ; preds = %8
  %34 = load ptr, ptr %10, align 8
  %35 = load i64, ptr %14, align 8
  %36 = load ptr, ptr %11, align 8
  %37 = load ptr, ptr %12, align 8
  %38 = call zeroext i1 @blf_read_bytes(ptr noundef %34, i64 noundef %35, ptr noundef %18, i64 noundef 20, ptr noundef %36, ptr noundef %37)
  br i1 %38, label %43, label %39

39:                                               ; preds = %33
  br label %40

40:                                               ; preds = %39
  br label %41

41:                                               ; preds = %40
  br label %42

42:                                               ; preds = %41
  store i1 false, ptr %9, align 1
  store i32 1, ptr %19, align 4
  br label %137

43:                                               ; preds = %33
  call void @fix_endianness_blf_ethernet_rxerror(ptr noundef %18)
  %44 = load i64, ptr %15, align 8
  %45 = load i64, ptr %14, align 8
  %46 = load i64, ptr %13, align 8
  %47 = sub i64 %45, %46
  %48 = sub i64 %44, %47
  %49 = getelementptr inbounds nuw %struct.blf_ethernet_rxerror, ptr %18, i32 0, i32 5
  %50 = load i16, ptr %49, align 4
  %51 = zext i16 %50 to i64
  %52 = icmp slt i64 %48, %51
  br i1 %52, label %53, label %60

53:                                               ; preds = %43
  %54 = load ptr, ptr %11, align 8
  store i32 -13, ptr %54, align 4
  %55 = call noalias ptr @wmem_strdup(ptr noundef null, ptr noundef @.str.53)
  %56 = load ptr, ptr %12, align 8
  store ptr %55, ptr %56, align 8
  br label %57

57:                                               ; preds = %53
  br label %58

58:                                               ; preds = %57
  br label %59

59:                                               ; preds = %58
  store i1 false, ptr %9, align 1
  store i32 1, ptr %19, align 4
  br label %137

60:                                               ; preds = %43
  %61 = load ptr, ptr %10, align 8
  %62 = getelementptr inbounds nuw %struct.blf_params, ptr %61, i32 0, i32 1
  %63 = load ptr, ptr %62, align 8
  %64 = getelementptr inbounds nuw %struct.wtap_rec, ptr %63, i32 0, i32 11
  %65 = getelementptr inbounds nuw %struct.blf_ethernet_rxerror, ptr %18, i32 0, i32 5
  %66 = load i16, ptr %65, align 4
  %67 = zext i16 %66 to i64
  call void @ws_buffer_assure_space(ptr noundef %64, i64 noundef %67)
  %68 = load ptr, ptr %10, align 8
  %69 = load i64, ptr %14, align 8
  %70 = add i64 %69, 20
  %71 = load ptr, ptr %10, align 8
  %72 = getelementptr inbounds nuw %struct.blf_params, ptr %71, i32 0, i32 1
  %73 = load ptr, ptr %72, align 8
  %74 = getelementptr inbounds nuw %struct.wtap_rec, ptr %73, i32 0, i32 11
  %75 = call ptr @ws_buffer_end_ptr(ptr noundef %74)
  %76 = getelementptr inbounds nuw %struct.blf_ethernet_rxerror, ptr %18, i32 0, i32 5
  %77 = load i16, ptr %76, align 4
  %78 = zext i16 %77 to i64
  %79 = load ptr, ptr %11, align 8
  %80 = load ptr, ptr %12, align 8
  %81 = call zeroext i1 @blf_read_bytes(ptr noundef %68, i64 noundef %70, ptr noundef %75, i64 noundef %78, ptr noundef %79, ptr noundef %80)
  br i1 %81, label %86, label %82

82:                                               ; preds = %60
  br label %83

83:                                               ; preds = %82
  br label %84

84:                                               ; preds = %83
  br label %85

85:                                               ; preds = %84
  store i1 false, ptr %9, align 1
  store i32 1, ptr %19, align 4
  br label %137

86:                                               ; preds = %60
  %87 = load ptr, ptr %10, align 8
  %88 = getelementptr inbounds nuw %struct.blf_params, ptr %87, i32 0, i32 1
  %89 = load ptr, ptr %88, align 8
  %90 = getelementptr inbounds nuw %struct.wtap_rec, ptr %89, i32 0, i32 11
  %91 = getelementptr inbounds nuw %struct.blf_ethernet_rxerror, ptr %18, i32 0, i32 5
  %92 = load i16, ptr %91, align 4
  %93 = zext i16 %92 to i64
  call void @ws_buffer_increase_length(ptr noundef %90, i64 noundef %93)
  %94 = getelementptr inbounds nuw %struct.blf_ethernet_rxerror, ptr %18, i32 0, i32 3
  %95 = load i16, ptr %94, align 2
  %96 = zext i16 %95 to i32
  %97 = icmp ne i32 %96, 0
  br i1 %97, label %98, label %121

98:                                               ; preds = %86
  %99 = load ptr, ptr %10, align 8
  %100 = load i32, ptr %16, align 4
  %101 = load i64, ptr %17, align 8
  %102 = getelementptr inbounds nuw %struct.blf_ethernet_rxerror, ptr %18, i32 0, i32 1
  %103 = load i16, ptr %102, align 2
  %104 = getelementptr inbounds nuw %struct.blf_ethernet_rxerror, ptr %18, i32 0, i32 3
  %105 = load i16, ptr %104, align 2
  %106 = getelementptr inbounds nuw %struct.blf_ethernet_rxerror, ptr %18, i32 0, i32 5
  %107 = load i16, ptr %106, align 4
  %108 = zext i16 %107 to i32
  %109 = getelementptr inbounds nuw %struct.blf_ethernet_rxerror, ptr %18, i32 0, i32 5
  %110 = load i16, ptr %109, align 4
  %111 = zext i16 %110 to i32
  call void @blf_init_rec(ptr noundef %99, i32 noundef %100, i64 noundef %101, i32 noundef 1, i16 noundef zeroext %103, i16 noundef zeroext %105, i32 noundef %108, i32 noundef %111)
  %112 = load ptr, ptr %10, align 8
  %113 = getelementptr inbounds nuw %struct.blf_params, ptr %112, i32 0, i32 1
  %114 = load ptr, ptr %113, align 8
  %115 = getelementptr inbounds nuw %struct.wtap_rec, ptr %114, i32 0, i32 8
  %116 = load ptr, ptr %115, align 8
  %117 = getelementptr inbounds nuw %struct.blf_ethernet_rxerror, ptr %18, i32 0, i32 3
  %118 = load i16, ptr %117, align 2
  %119 = zext i16 %118 to i32
  %120 = call i32 @wtap_block_add_uint32_option(ptr noundef %116, i32 noundef 6, i32 noundef %119)
  br label %133

121:                                              ; preds = %86
  %122 = load ptr, ptr %10, align 8
  %123 = load i32, ptr %16, align 4
  %124 = load i64, ptr %17, align 8
  %125 = getelementptr inbounds nuw %struct.blf_ethernet_rxerror, ptr %18, i32 0, i32 1
  %126 = load i16, ptr %125, align 2
  %127 = getelementptr inbounds nuw %struct.blf_ethernet_rxerror, ptr %18, i32 0, i32 5
  %128 = load i16, ptr %127, align 4
  %129 = zext i16 %128 to i32
  %130 = getelementptr inbounds nuw %struct.blf_ethernet_rxerror, ptr %18, i32 0, i32 5
  %131 = load i16, ptr %130, align 4
  %132 = zext i16 %131 to i32
  call void @blf_init_rec(ptr noundef %122, i32 noundef %123, i64 noundef %124, i32 noundef 1, i16 noundef zeroext %126, i16 noundef zeroext -1, i32 noundef %129, i32 noundef %132)
  br label %133

133:                                              ; preds = %121, %98
  %134 = load ptr, ptr %10, align 8
  %135 = getelementptr inbounds nuw %struct.blf_ethernet_rxerror, ptr %18, i32 0, i32 2
  %136 = load i16, ptr %135, align 4
  call void @blf_add_direction_option(ptr noundef %134, i16 noundef zeroext %136)
  store i1 true, ptr %9, align 1
  store i32 1, ptr %19, align 4
  br label %137

137:                                              ; preds = %133, %85, %59, %42, %32
  call void @llvm.lifetime.end.p0(i64 20, ptr %18) #13
  %138 = load i1, ptr %9, align 1
  ret i1 %138
}