; Function Attrs: null_pointer_is_valid sspstrong uwtable
define internal fastcc noundef zeroext i1 @blf_read_ethernet_rxerror(ptr noundef readonly captures(none) %0, ptr noundef %1, ptr noundef %2, i64 noundef %3, i64 noundef %4, i64 noundef range(i64 0, 4294967296) %5, i32 noundef %6, i64 noundef %7) unnamed_addr #2 {
  %9 = alloca %struct.blf_ethernet_rxerror, align 4
  call void @llvm.lifetime.start.p0(i64 20, ptr nonnull %9) #14
  %10 = sub i64 %4, %3
  %11 = add i64 %10, 20
  %12 = icmp slt i64 %5, %11
  br i1 %12, label %13, label %15

13:                                               ; preds = %8
  store i32 -13, ptr %1, align 4
  %14 = tail call noalias ptr @wmem_strdup(ptr noundef null, ptr noundef nonnull @.str.52)
  store ptr %14, ptr %2, align 8
  br label %blf_read_bytes.exit.thread

15:                                               ; preds = %8
  %16 = call fastcc zeroext i1 @blf_read_bytes_or_eof(ptr noundef readonly %0, i64 noundef %4, ptr noundef nonnull %9, i64 noundef 20, ptr noundef %1, ptr noundef %2)
  br i1 %16, label %blf_read_bytes.exit, label %17

17:                                               ; preds = %15
  %18 = load i32, ptr %1, align 4
  %19 = icmp eq i32 %18, 0
  br i1 %19, label %20, label %blf_read_bytes.exit.thread

20:                                               ; preds = %17
  store i32 -12, ptr %1, align 4
  br label %blf_read_bytes.exit.thread

blf_read_bytes.exit:                              ; preds = %15
  %21 = sub i64 %5, %10
  %22 = getelementptr inbounds nuw i8, ptr %9, i64 12
  %23 = load i16, ptr %22, align 4
  %24 = zext i16 %23 to i64
  %25 = icmp slt i64 %21, %24
  br i1 %25, label %26, label %28

26:                                               ; preds = %blf_read_bytes.exit
  store i32 -13, ptr %1, align 4
  %27 = call noalias ptr @wmem_strdup(ptr noundef null, ptr noundef nonnull @.str.53)
  store ptr %27, ptr %2, align 8
  br label %blf_read_bytes.exit.thread

28:                                               ; preds = %blf_read_bytes.exit
  %29 = getelementptr inbounds nuw i8, ptr %0, i64 8
  %30 = load ptr, ptr %29, align 8
  %31 = getelementptr inbounds nuw i8, ptr %30, i64 280
  call void @ws_buffer_assure_space(ptr noundef nonnull %31, i64 noundef %24)
  %32 = add i64 %4, 20
  %33 = load ptr, ptr %29, align 8
  %34 = getelementptr inbounds nuw i8, ptr %33, i64 280
  %.val = load ptr, ptr %34, align 8
  %35 = getelementptr i8, ptr %33, i64 304
  %.val31 = load i64, ptr %35, align 8
  %36 = getelementptr i8, ptr %.val, i64 %.val31
  %37 = load i16, ptr %22, align 4
  %38 = zext i16 %37 to i64
  %39 = call fastcc zeroext i1 @blf_read_bytes_or_eof(ptr noundef readonly %0, i64 noundef %32, ptr noundef %36, i64 noundef range(i64 0, 4294967296) %38, ptr noundef %1, ptr noundef %2)
  br i1 %39, label %blf_read_bytes.exit32, label %40

40:                                               ; preds = %28
  %41 = load i32, ptr %1, align 4
  %42 = icmp eq i32 %41, 0
  br i1 %42, label %43, label %blf_read_bytes.exit.thread

43:                                               ; preds = %40
  store i32 -12, ptr %1, align 4
  br label %blf_read_bytes.exit.thread

blf_read_bytes.exit32:                            ; preds = %28
  %44 = load ptr, ptr %29, align 8
  %45 = load i16, ptr %22, align 4
  %46 = zext i16 %45 to i64
  %47 = getelementptr inbounds nuw i8, ptr %44, i64 304
  %48 = load i64, ptr %47, align 8
  %49 = add i64 %48, %46
  store i64 %49, ptr %47, align 8
  %50 = getelementptr inbounds nuw i8, ptr %9, i64 6
  %51 = load i16, ptr %50, align 2
  %.not = icmp eq i16 %51, 0
  %52 = getelementptr inbounds nuw i8, ptr %9, i64 2
  %53 = load i16, ptr %52, align 2
  %54 = zext i16 %45 to i32
  br i1 %.not, label %62, label %55

55:                                               ; preds = %blf_read_bytes.exit32
  call fastcc void @blf_init_rec(ptr noundef %0, i32 noundef %6, i64 noundef %7, i32 noundef 1, i16 noundef zeroext %53, i16 noundef zeroext %51, i32 noundef %54, i32 noundef %54)
  %56 = load ptr, ptr %29, align 8
  %57 = getelementptr inbounds nuw i8, ptr %56, i64 232
  %58 = load ptr, ptr %57, align 8
  %59 = load i16, ptr %50, align 2
  %60 = zext i16 %59 to i32
  %61 = call i32 @wtap_block_add_uint32_option(ptr noundef %58, i32 noundef 6, i32 noundef %60)
  br label %63

62:                                               ; preds = %blf_read_bytes.exit32
  call fastcc void @blf_init_rec(ptr noundef %0, i32 noundef %6, i64 noundef %7, i32 noundef 1, i16 noundef zeroext %53, i16 noundef zeroext -1, i32 noundef %54, i32 noundef %54)
  br label %63

63:                                               ; preds = %62, %55
  %64 = getelementptr inbounds nuw i8, ptr %9, i64 4
  %65 = load i16, ptr %64, align 4
  %66 = icmp ult i16 %65, 3
  br i1 %66, label %switch.lookup, label %blf_add_direction_option.exit

switch.lookup:                                    ; preds = %63
  %67 = zext nneg i16 %65 to i64
  %switch.gep = getelementptr inbounds nuw [3 x i32], ptr @switch.table.blf_read_lincrcerror2, i64 0, i64 %67
  %switch.load = load i32, ptr %switch.gep, align 4
  br label %blf_add_direction_option.exit

blf_add_direction_option.exit:                    ; preds = %switch.lookup, %63
  %.0.i = phi i32 [ 0, %63 ], [ %switch.load, %switch.lookup ]
  %68 = load ptr, ptr %29, align 8
  %69 = getelementptr inbounds nuw i8, ptr %68, i64 232
  %70 = load ptr, ptr %69, align 8
  %71 = call i32 @wtap_block_add_uint32_option(ptr noundef %70, i32 noundef 2, i32 noundef %.0.i)
  br label %blf_read_bytes.exit.thread

blf_read_bytes.exit.thread:                       ; preds = %43, %40, %20, %17, %blf_add_direction_option.exit, %26, %13
  %.0 = phi i1 [ false, %13 ], [ false, %26 ], [ true, %blf_add_direction_option.exit ], [ false, %17 ], [ false, %20 ], [ false, %40 ], [ false, %43 ]
  call void @llvm.lifetime.end.p0(i64 20, ptr nonnull %9) #14
  ret i1 %.0
}